(dp0
S'Region_distRNN_DSRVBSTight_BMin0_T0_Y6051_incTag1_J2_L0_incJet1'
p1
(dp2
S'Bkg'
p3
(lp4
F17614.392993748133
aF301.43055795164094
asS'MC'
p5
(lp6
F17609.949090538874
aF133.41028107102235
asS'data'
p7
F17606.0
sS'Signal'
p8
(lp9
F-4.4439032092610375
aF280.67837798263264
asS'L_x_W_Region_distRNN_DSRVBSTight_BMin0_T0_Y6051_incTag1_J2_L0_incJet1_overallSyst_x_StatUncert'
p10
(lp11
F7138.31471013745
aF171.0094621809908
asS'S/sqrt(S+B)'
p12
F-0.03348771700923069
sS'L_x_stop_Region_distRNN_DSRVBSTight_BMin0_T0_Y6051_incTag1_J2_L0_incJet1_overallSyst_x_StatUncert'
p13
(lp14
F232.5610261232823
aF72.32104603547981
asS'L_x_ttbar_Region_distRNN_DSRVBSTight_BMin0_T0_Y6051_incTag1_J2_L0_incJet1_overallSyst_x_StatUncert'
p15
(lp16
F1029.1192888529092
aF187.86544809226604
asS'S/B'
p17
F-0.0002522881833531425
sS'L_x_Z_Region_distRNN_DSRVBSTight_BMin0_T0_Y6051_incTag1_J2_L0_incJet1_overallSyst_x_StatUncert'
p18
(lp19
F8863.665963771315
aF198.7516063164172
asS'SignalExpected'
p20
(lp21
F62.40864098525113
aF-3941.7501459833866
asS'L_x_EW6vvqq_Region_distRNN_DSRVBSTight_BMin0_T0_Y6051_incTag1_J2_L0_incJet1_overallSyst_x_HistSyst'
p22
(lp23
F-4.4439032092610375
aF280.67837798263264
asS'L_x_Diboson_Region_distRNN_DSRVBSTight_BMin0_T0_Y6051_incTag1_J2_L0_incJet1_overallSyst_x_StatUncert'
p24
(lp25
F350.73200486317535
aF151.52091779393214
assS'Region_distRNN_DSRVBSHP_BMin0_J0_incJet1_L0_T0_incFat1_Y6051_incTag1_Fat1'
p26
(dp27
g3
(lp28
F2504.704178833734
aF127.69380770919383
asS'L_x_Z_Region_distRNN_DSRVBSHP_BMin0_J0_incJet1_L0_T0_incFat1_Y6051_incTag1_Fat1_overallSyst_x_StatUncert'
p29
(lp30
F544.5320282678903
aF74.29918504856194
asg5
(lp31
F2502.782158458973
aF51.19829846924043
asS'L_x_Diboson_Region_distRNN_DSRVBSHP_BMin0_J0_incJet1_L0_T0_incFat1_Y6051_incTag1_Fat1_overallSyst_x_StatUncert'
p32
(lp33
F114.72534480266211
aF49.85385659347499
asg8
(lp34
F-1.9220203747614946
aF121.42911682826741
asg12
F-0.038419035870374776
sS'L_x_stop_Region_distRNN_DSRVBSHP_BMin0_J0_incJet1_L0_T0_incFat1_Y6051_incTag1_Fat1_overallSyst_x_StatUncert'
p35
(lp36
F125.47357531775418
aF39.53031596583043
asg17
F-0.0007673642224913144
sS'L_x_EW6vvqq_Region_distRNN_DSRVBSHP_BMin0_J0_incJet1_L0_T0_incFat1_Y6051_incTag1_Fat1_overallSyst_x_HistSyst'
p37
(lp38
F-1.9220203747614946
aF121.42911682826741
asg20
(lp39
F26.992189947983626
aF-1705.3085543129137
asS'L_x_ttbar_Region_distRNN_DSRVBSHP_BMin0_J0_incJet1_L0_T0_incFat1_Y6051_incTag1_Fat1_overallSyst_x_StatUncert'
p40
(lp41
F1236.2993943276351
aF169.43822120117898
asg7
F2503.0
sS'L_x_W_Region_distRNN_DSRVBSHP_BMin0_J0_incJet1_L0_T0_incFat1_Y6051_incTag1_Fat1_overallSyst_x_StatUncert'
p42
(lp43
F483.67383611779303
aF66.02666265342096
assS'Region_disttagMjj_DCRVjetMerged_BMin0_J0_incJet1_L0_T0_incFat1_Y6051_incTag1_Fat1'
p44
(dp45
S'L_x_EW6vvqq_Region_disttagMjj_DCRVjetMerged_BMin0_J0_incJet1_L0_T0_incFat1_Y6051_incTag1_Fat1_overallSyst_x_HistSyst'
p46
(lp47
F-5.386558579854904
aF340.173205736157
asg5
(lp48
F16816.41865794229
aF149.77825735721203
asS'L_x_Diboson_Region_disttagMjj_DCRVjetMerged_BMin0_J0_incJet1_L0_T0_incFat1_Y6051_incTag1_Fat1_overallSyst_x_StatUncert'
p49
(lp50
F448.50612102336805
aF195.31618279913818
asS'L_x_stop_Region_disttagMjj_DCRVjetMerged_BMin0_J0_incJet1_L0_T0_incFat1_Y6051_incTag1_Fat1_overallSyst_x_StatUncert'
p51
(lp52
F467.30440112067186
aF147.57456615677688
asg8
(lp53
F-5.386558579854904
aF340.173205736157
asg12
F-0.04153790911723727
sS'L_x_Z_Region_disttagMjj_DCRVjetMerged_BMin0_J0_incJet1_L0_T0_incFat1_Y6051_incTag1_Fat1_overallSyst_x_StatUncert'
p54
(lp55
F6037.039128655724
aF597.3575384653466
asS'L_x_ttbar_Region_disttagMjj_DCRVjetMerged_BMin0_J0_incJet1_L0_T0_incFat1_Y6051_incTag1_Fat1_overallSyst_x_StatUncert'
p56
(lp57
F4855.505853747954
aF1046.0373257270696
asg17
F-0.00032021287314421524
sS'L_x_W_Region_disttagMjj_DCRVjetMerged_BMin0_J0_incJet1_L0_T0_incFat1_Y6051_incTag1_Fat1_overallSyst_x_StatUncert'
p58
(lp59
F5013.449711974424
aF499.6321941346447
asg20
(lp60
F75.64696725518671
aF-4777.274947246211
asg7
F16833.0
sg3
(lp61
F16821.805216522145
aF366.2833648775561
assS'Region_distRNN_DSRVBSLP_BMin0_J0_incJet1_L0_T0_incFat1_Y6051_incTag1_Fat1'
p62
(dp63
S'L_x_EW6vvqq_Region_distRNN_DSRVBSLP_BMin0_J0_incJet1_L0_T0_incFat1_Y6051_incTag1_Fat1_overallSyst_x_Exp'
p64
(lp65
F-0.6659197560653486
aF42.05076928079297
asS'L_x_stop_Region_distRNN_DSRVBSLP_BMin0_J0_incJet1_L0_T0_incFat1_Y6051_incTag1_Fat1_overallSyst_x_StatUncert'
p66
(lp67
F83.9483978110752
aF26.65996479576232
asg5
(lp68
F2912.8314248019065
aF55.05671863871232
asg7
F2892.0
sg8
(lp69
F-0.6659197560653486
aF42.05076928079297
asg12
F-0.012338552797273724
sg17
F-0.00022856370791248488
sS'L_x_Z_Region_distRNN_DSRVBSLP_BMin0_J0_incJet1_L0_T0_incFat1_Y6051_incTag1_Fat1_overallSyst_x_StatUncert'
p70
(lp71
F962.0513378616017
aF94.04075210470972
asg20
(lp72
F9.35194693139572
aF-590.5464722385407
asS'L_x_W_Region_distRNN_DSRVBSLP_BMin0_J0_incJet1_L0_T0_incFat1_Y6051_incTag1_Fat1_overallSyst_x_StatUncert'
p73
(lp74
F787.815400585881
aF77.28303180177807
asS'L_x_Diboson_Region_distRNN_DSRVBSLP_BMin0_J0_incJet1_L0_T0_incFat1_Y6051_incTag1_Fat1_overallSyst_x_StatUncert'
p75
(lp76
F78.64255832003096
aF34.3552091546604
asg3
(lp77
F2913.4973445579717
aF70.54576184468813
asS'L_x_ttbar_Region_distRNN_DSRVBSLP_BMin0_J0_incJet1_L0_T0_incFat1_Y6051_incTag1_Fat1_overallSyst_x_StatUncert'
p78
(lp79
F1001.0396499793827
aF169.33638737617642
assS'Region_disttagMjj_DCRVjetTight_BMin0_T0_Y6051_incTag1_J2_L0_incJet1'
p80
(dp81
g3
(lp82
F176011.6683871516
aF2377.098200139067
asS'L_x_EW6vvqq_Region_disttagMjj_DCRVjetTight_BMin0_T0_Y6051_incTag1_J2_L0_incJet1_overallSyst_x_HistSyst'
p83
(lp84
F-37.109147003055
aF2343.795089626484
asg5
(lp85
F175974.55924014855
aF528.903095485887
asS'L_x_Z_Region_disttagMjj_DCRVjetTight_BMin0_T0_Y6051_incTag1_J2_L0_incJet1_overallSyst_x_StatUncert'
p86
(lp87
F79961.86298030487
aF2237.32670969363
asS'L_x_ttbar_Region_disttagMjj_DCRVjetTight_BMin0_T0_Y6051_incTag1_J2_L0_incJet1_overallSyst_x_StatUncert'
p88
(lp89
F22455.186797491067
aF3700.4093087830192
asg8
(lp90
F-37.109147003055
aF2343.795089626484
asS'L_x_Diboson_Region_disttagMjj_DCRVjetTight_BMin0_T0_Y6051_incTag1_J2_L0_incJet1_overallSyst_x_StatUncert'
p91
(lp92
F3687.6688809159655
aF1589.7522778566383
asS'L_x_W_Region_disttagMjj_DCRVjetTight_BMin0_T0_Y6051_incTag1_J2_L0_incJet1_overallSyst_x_StatUncert'
p93
(lp94
F66658.74580457699
aF1861.8156965184924
asg12
F-0.08846185226691708
sg17
F-0.00021083344839065152
sg20
(lp95
F521.1480366530477
aF-32915.44829029186
asg7
F175982.0
sS'L_x_stop_Region_disttagMjj_DCRVjetTight_BMin0_T0_Y6051_incTag1_J2_L0_incJet1_overallSyst_x_StatUncert'
p96
(lp97
F3248.203923862695
aF1007.7206372619484
ass.