(dp0
S'Region_distRNN_DSRVBSTight_BMin0_T0_Y6051_incTag1_J2_L0_incJet1'
p1
(dp2
S'Bkg'
p3
(lp4
F17797.1826877594
aI-1
asS'MC'
p5
(lp6
F17860.778178930283
aI-1
asS'data'
p7
F17606.0
sS'Signal'
p8
(lp9
F63.59549117088319
aI-1
asS'L_x_W_Region_distRNN_DSRVBSTight_BMin0_T0_Y6051_incTag1_J2_L0_incJet1_overallSyst_x_StatUncert'
p10
(lp11
F7207.583435058593
aI-1
asS'S/sqrt(S+B)'
p12
F0.47585664409830164
sS'L_x_stop_Region_distRNN_DSRVBSTight_BMin0_T0_Y6051_incTag1_J2_L0_incJet1_overallSyst_x_StatUncert'
p13
(lp14
F248.80565834045407
aI-1
asS'L_x_ttbar_Region_distRNN_DSRVBSTight_BMin0_T0_Y6051_incTag1_J2_L0_incJet1_overallSyst_x_StatUncert'
p15
(lp16
F998.102752685547
aI-1
asS'S/B'
p17
F0.003573345977654266
sS'L_x_Z_Region_distRNN_DSRVBSTight_BMin0_T0_Y6051_incTag1_J2_L0_incJet1_overallSyst_x_StatUncert'
p18
(lp19
F8919.316040039062
aI-1
asS'SignalExpected'
p20
(lp21
F63.59549117088319
aF-1.0
asS'L_x_EW6vvqq_Region_distRNN_DSRVBSTight_BMin0_T0_Y6051_incTag1_J2_L0_incJet1_overallSyst_x_HistSyst'
p22
(lp23
F63.59549117088319
aI-1
asS'L_x_Diboson_Region_distRNN_DSRVBSTight_BMin0_T0_Y6051_incTag1_J2_L0_incJet1_overallSyst_x_StatUncert'
p24
(lp25
F423.3748016357422
aI-1
assS'Region_distRNN_DSRVBSHP_BMin0_J0_incJet1_L0_T0_incFat1_Y6051_incTag1_Fat1'
p26
(dp27
g3
(lp28
F2751.7175903320312
aI-1
asS'L_x_Z_Region_distRNN_DSRVBSHP_BMin0_J0_incJet1_L0_T0_incFat1_Y6051_incTag1_Fat1_overallSyst_x_StatUncert'
p29
(lp30
F650.5141143798827
aI-1
asg5
(lp31
F2779.7116882801056
aI-1
asS'L_x_Diboson_Region_distRNN_DSRVBSHP_BMin0_J0_incJet1_L0_T0_incFat1_Y6051_incTag1_Fat1_overallSyst_x_StatUncert'
p32
(lp33
F141.53968620300293
aI-1
asg8
(lp34
F27.994097948074344
aI-1
asg12
F0.5309658642226008
sS'L_x_stop_Region_distRNN_DSRVBSHP_BMin0_J0_incJet1_L0_T0_incFat1_Y6051_incTag1_Fat1_overallSyst_x_StatUncert'
p35
(lp36
F138.34422874450684
aI-1
asg17
F0.010173317947462946
sS'L_x_EW6vvqq_Region_distRNN_DSRVBSHP_BMin0_J0_incJet1_L0_T0_incFat1_Y6051_incTag1_Fat1_overallSyst_x_HistSyst'
p37
(lp38
F27.994097948074344
aI-1
asg20
(lp39
F27.994097948074344
aF-1.0
asS'L_x_ttbar_Region_distRNN_DSRVBSHP_BMin0_J0_incJet1_L0_T0_incFat1_Y6051_incTag1_Fat1_overallSyst_x_StatUncert'
p40
(lp41
F1237.1524200439453
aI-1
asg7
F2503.0
sS'L_x_W_Region_distRNN_DSRVBSHP_BMin0_J0_incJet1_L0_T0_incFat1_Y6051_incTag1_Fat1_overallSyst_x_StatUncert'
p42
(lp43
F584.1671409606934
aI-1
assS'Region_disttagMjj_DCRVjetMerged_BMin0_J0_incJet1_L0_T0_incFat1_Y6051_incTag1_Fat1'
p44
(dp45
S'L_x_EW6vvqq_Region_disttagMjj_DCRVjetMerged_BMin0_J0_incJet1_L0_T0_incFat1_Y6051_incTag1_Fat1_overallSyst_x_HistSyst'
p46
(lp47
F70.06319331211688
aI-1
asg5
(lp48
F17281.68294474814
aI-1
asS'L_x_Diboson_Region_disttagMjj_DCRVjetMerged_BMin0_J0_incJet1_L0_T0_incFat1_Y6051_incTag1_Fat1_overallSyst_x_StatUncert'
p49
(lp50
F494.24735648448615
aI-1
asS'L_x_stop_Region_disttagMjj_DCRVjetMerged_BMin0_J0_incJet1_L0_T0_incFat1_Y6051_incTag1_Fat1_overallSyst_x_StatUncert'
p51
(lp52
F467.3350067237123
aI-1
asg8
(lp53
F70.06319331211688
aI-1
asg12
F0.5329628171369158
sS'L_x_Z_Region_disttagMjj_DCRVjetMerged_BMin0_J0_incJet1_L0_T0_incFat1_Y6051_incTag1_Fat1_overallSyst_x_StatUncert'
p54
(lp55
F6493.33458839222
aI-1
asS'L_x_ttbar_Region_disttagMjj_DCRVjetMerged_BMin0_J0_incJet1_L0_T0_incFat1_Y6051_incTag1_Fat1_overallSyst_x_StatUncert'
p56
(lp57
F4360.997339748885
aI-1
asg17
F0.004070691447054033
sS'L_x_W_Region_disttagMjj_DCRVjetMerged_BMin0_J0_incJet1_L0_T0_incFat1_Y6051_incTag1_Fat1_overallSyst_x_StatUncert'
p58
(lp59
F5395.705460086722
aI-1
asg20
(lp60
F70.06319331211688
aF-1.0
asg7
F16833.0
sg3
(lp61
F17211.61975143602
aI-1
assS'Region_distRNN_DSRVBSLP_BMin0_J0_incJet1_L0_T0_incFat1_Y6051_incTag1_Fat1'
p62
(dp63
S'L_x_EW6vvqq_Region_distRNN_DSRVBSLP_BMin0_J0_incJet1_L0_T0_incFat1_Y6051_incTag1_Fat1_overallSyst_x_Exp'
p64
(lp65
F9.825052201747894
aI-1
asS'L_x_stop_Region_distRNN_DSRVBSLP_BMin0_J0_incJet1_L0_T0_incFat1_Y6051_incTag1_Fat1_overallSyst_x_StatUncert'
p66
(lp67
F94.41905784606934
aI-1
asg5
(lp68
F3262.3477439284325
aI-1
asg7
F2892.0
sg8
(lp69
F9.825052201747894
aI-1
asg12
F0.17201635489145217
sg17
F0.003020748241584754
sS'L_x_Z_Region_distRNN_DSRVBSLP_BMin0_J0_incJet1_L0_T0_incFat1_Y6051_incTag1_Fat1_overallSyst_x_StatUncert'
p70
(lp71
F1126.3298645019531
aI-1
asg20
(lp72
F9.825052201747894
aF-1.0
asS'L_x_W_Region_distRNN_DSRVBSLP_BMin0_J0_incJet1_L0_T0_incFat1_Y6051_incTag1_Fat1_overallSyst_x_StatUncert'
p73
(lp74
F920.4094848632812
aI-1
asS'L_x_Diboson_Region_distRNN_DSRVBSLP_BMin0_J0_incJet1_L0_T0_incFat1_Y6051_incTag1_Fat1_overallSyst_x_StatUncert'
p75
(lp76
F97.79485702514648
aI-1
asg3
(lp77
F3252.5226917266846
aI-1
asS'L_x_ttbar_Region_distRNN_DSRVBSLP_BMin0_J0_incJet1_L0_T0_incFat1_Y6051_incTag1_Fat1_overallSyst_x_StatUncert'
p78
(lp79
F1013.5694274902344
aI-1
assS'Region_disttagMjj_DCRVjetTight_BMin0_T0_Y6051_incTag1_J2_L0_incJet1'
p80
(dp81
g3
(lp82
F177602.2780078978
aI-1
asS'L_x_EW6vvqq_Region_disttagMjj_DCRVjetTight_BMin0_T0_Y6051_incTag1_J2_L0_incJet1_overallSyst_x_HistSyst'
p83
(lp84
F515.4640106481922
aI-1
asg5
(lp85
F178117.742018546
aI-1
asS'L_x_Z_Region_disttagMjj_DCRVjetTight_BMin0_T0_Y6051_incTag1_J2_L0_incJet1_overallSyst_x_StatUncert'
p86
(lp87
F80524.0706142926
aI-1
asS'L_x_ttbar_Region_disttagMjj_DCRVjetTight_BMin0_T0_Y6051_incTag1_J2_L0_incJet1_overallSyst_x_StatUncert'
p88
(lp89
F21802.088626627337
aI-1
asg8
(lp90
F515.4640106481922
aI-1
asS'L_x_Diboson_Region_disttagMjj_DCRVjetTight_BMin0_T0_Y6051_incTag1_J2_L0_incJet1_overallSyst_x_StatUncert'
p91
(lp92
F4375.680785106262
aI-1
asS'L_x_W_Region_disttagMjj_DCRVjetTight_BMin0_T0_Y6051_incTag1_J2_L0_incJet1_overallSyst_x_StatUncert'
p93
(lp94
F67436.4648241965
aI-1
asg12
F1.221362996355974
sg17
F0.0029023502199970095
sg20
(lp95
F515.4640106481922
aF-1.0
asg7
F175982.0
sS'L_x_stop_Region_disttagMjj_DCRVjetTight_BMin0_T0_Y6051_incTag1_J2_L0_incJet1_overallSyst_x_StatUncert'
p96
(lp97
F3463.9731576750837
aI-1
ass.