(dp0
S'Region_distRNN_DSRVBSTight_BMin0_T0_Y6051_incTag1_J2_L0_incJet1'
p1
(dp2
S'Bkg'
p3
(lp4
F21814.628966212273
aF1436.5818051649908
asS'MC'
p5
(lp6
F22032.620978951454
aF1436.8395698893123
asS'data'
p7
F21789.0
sS'Signal'
p8
(lp9
F217.99201273918152
aF19.132687178063183
asS'L_x_W_Region_distRNN_DSRVBSTight_BMin0_T0_Y6051_incTag1_J2_L0_incJet1_overallSyst_x_StatUncert'
p10
(lp11
F8756.324481010437
aF598.1092753797698
asS'S/sqrt(S+B)'
p12
F1.4686134441050105
sS'L_x_stop_Region_distRNN_DSRVBSTight_BMin0_T0_Y6051_incTag1_J2_L0_incJet1_overallSyst_x_StatUncert'
p13
(lp14
F329.14278161525726
aF100.10744578854275
asS'L_x_ttbar_Region_distRNN_DSRVBSTight_BMin0_T0_Y6051_incTag1_J2_L0_incJet1_overallSyst_x_StatUncert'
p15
(lp16
F1283.5935597419739
aF388.3578934357691
asS'S/B'
p17
F0.009992927822738577
sS'L_x_Z_Region_distRNN_DSRVBSTight_BMin0_T0_Y6051_incTag1_J2_L0_incJet1_overallSyst_x_StatUncert'
p18
(lp19
F10859.557975769043
aF722.7980526049519
asS'SignalExpected'
p20
(lp21
F217.99201273918152
aF19.132687178063183
asS'L_x_EW6vvqq_Region_distRNN_DSRVBSTight_BMin0_T0_Y6051_incTag1_J2_L0_incJet1_overallSyst_x_HistSyst'
p22
(lp23
F217.99201273918152
aF19.132687178063183
asS'L_x_Diboson_Region_distRNN_DSRVBSTight_BMin0_T0_Y6051_incTag1_J2_L0_incJet1_overallSyst_x_StatUncert'
p24
(lp25
F586.0101680755615
aF235.92827746750197
assS'Region_distRNN_DSRVBSHP_BMin0_J0_incJet1_L0_T0_incFat1_Y6051_incTag1_Fat1'
p26
(dp27
g3
(lp28
F3557.0770113468166
aF673.8509187128616
asS'L_x_Z_Region_distRNN_DSRVBSHP_BMin0_J0_incJet1_L0_T0_incFat1_Y6051_incTag1_Fat1_overallSyst_x_StatUncert'
p29
(lp30
F848.9716885089874
aF117.61915914798499
asg5
(lp31
F3649.3062353134155
aF679.3715467489749
asS'L_x_Diboson_Region_distRNN_DSRVBSHP_BMin0_J0_incJet1_L0_T0_incFat1_Y6051_incTag1_Fat1_overallSyst_x_StatUncert'
p32
(lp33
F207.59140837192535
aF89.21770567320381
asg8
(lp34
F92.2292239665985
aF12.74939256255894
asg12
F1.5267340791094797
sS'L_x_stop_Region_distRNN_DSRVBSHP_BMin0_J0_incJet1_L0_T0_incFat1_Y6051_incTag1_Fat1_overallSyst_x_StatUncert'
p35
(lp36
F189.67679941654205
aF65.46404509020408
asg17
F0.02592837424446926
sS'L_x_EW6vvqq_Region_distRNN_DSRVBSHP_BMin0_J0_incJet1_L0_T0_incFat1_Y6051_incTag1_Fat1_overallSyst_x_HistSyst'
p37
(lp38
F92.2292239665985
aF12.74939256255894
asg20
(lp39
F92.2292239665985
aF12.74939256255894
asS'L_x_ttbar_Region_distRNN_DSRVBSHP_BMin0_J0_incJet1_L0_T0_incFat1_Y6051_incTag1_Fat1_overallSyst_x_StatUncert'
p40
(lp41
F1533.3151154518127
aF551.7081160436474
asg7
F3349.0
sS'L_x_W_Region_distRNN_DSRVBSHP_BMin0_J0_incJet1_L0_T0_incFat1_Y6051_incTag1_Fat1_overallSyst_x_StatUncert'
p42
(lp43
F777.5219995975494
aF105.07709471509602
assS'Region_disttagMjj_DCRVjetMerged_BMin0_J0_incJet1_L0_T0_incFat1_Y6051_incTag1_Fat1'
p44
(dp45
S'L_x_EW6vvqq_Region_disttagMjj_DCRVjetMerged_BMin0_J0_incJet1_L0_T0_incFat1_Y6051_incTag1_Fat1_overallSyst_x_HistSyst'
p46
(lp47
F70.06319331211688
aF8.90266184226618
asg5
(lp48
F17281.68294474814
aF2039.3485229247956
asS'L_x_Diboson_Region_disttagMjj_DCRVjetMerged_BMin0_J0_incJet1_L0_T0_incFat1_Y6051_incTag1_Fat1_overallSyst_x_StatUncert'
p49
(lp50
F494.24735648448615
aF201.86477106241696
asS'L_x_stop_Region_disttagMjj_DCRVjetMerged_BMin0_J0_incJet1_L0_T0_incFat1_Y6051_incTag1_Fat1_overallSyst_x_StatUncert'
p51
(lp52
F467.3350067237123
aF148.15546070507938
asg8
(lp53
F70.06319331211688
aF8.90266184226618
asg12
F0.5329628171369158
sS'L_x_Z_Region_disttagMjj_DCRVjetMerged_BMin0_J0_incJet1_L0_T0_incFat1_Y6051_incTag1_Fat1_overallSyst_x_StatUncert'
p54
(lp55
F6493.33458839222
aF608.225149009781
asS'L_x_ttbar_Region_disttagMjj_DCRVjetMerged_BMin0_J0_incJet1_L0_T0_incFat1_Y6051_incTag1_Fat1_overallSyst_x_StatUncert'
p56
(lp57
F4360.997339748885
aF1434.5062142013455
asg17
F0.004070691447054031
sS'L_x_W_Region_disttagMjj_DCRVjetMerged_BMin0_J0_incJet1_L0_T0_incFat1_Y6051_incTag1_Fat1_overallSyst_x_StatUncert'
p58
(lp59
F5395.705460086722
aF497.98509391082615
asg20
(lp60
F70.06319331211688
aF8.90266184226618
asg7
F16833.0
sg3
(lp61
F17211.61975143603
aF2034.7898837076232
assS'Region_distRNN_DSRVBSLP_BMin0_J0_incJet1_L0_T0_incFat1_Y6051_incTag1_Fat1'
p62
(dp63
g3
(lp64
F7206.24925994873
aF907.3155223566763
asS'L_x_stop_Region_distRNN_DSRVBSLP_BMin0_J0_incJet1_L0_T0_incFat1_Y6051_incTag1_Fat1_overallSyst_x_StatUncert'
p65
(lp66
F230.3235340118408
aF74.21585292258837
asg5
(lp67
F7279.647357881068
aF910.6659281994089
asg7
F6585.0
sS'L_x_EW6vvqq_Region_distRNN_DSRVBSLP_BMin0_J0_incJet1_L0_T0_incFat1_Y6051_incTag1_Fat1_overallSyst_x_HistSyst'
p68
(lp69
F73.39809793233871
aF10.650158783811492
asg12
F0.8602598118763979
sg17
F0.010185339874416296
sS'L_x_Z_Region_distRNN_DSRVBSLP_BMin0_J0_incJet1_L0_T0_incFat1_Y6051_incTag1_Fat1_overallSyst_x_StatUncert'
p70
(lp71
F2568.0427684783936
aF247.78832555540214
asg20
(lp72
F73.39809793233871
aF10.650158783811492
asS'L_x_W_Region_distRNN_DSRVBSLP_BMin0_J0_incJet1_L0_T0_incFat1_Y6051_incTag1_Fat1_overallSyst_x_StatUncert'
p73
(lp74
F2123.9881153106685
aF201.957650567694
asS'L_x_Diboson_Region_distRNN_DSRVBSLP_BMin0_J0_incJet1_L0_T0_incFat1_Y6051_incTag1_Fat1_overallSyst_x_StatUncert'
p75
(lp76
F274.60277795791626
aF115.65938564923631
asg8
(lp77
F73.39809793233871
aF10.650158783811492
asS'L_x_ttbar_Region_distRNN_DSRVBSLP_BMin0_J0_incJet1_L0_T0_incFat1_Y6051_incTag1_Fat1_overallSyst_x_StatUncert'
p78
(lp79
F2009.2920641899107
aF648.9388477034371
assS'Region_disttagMjj_DCRVjetTight_BMin0_T0_Y6051_incTag1_J2_L0_incJet1'
p80
(dp81
g3
(lp82
F177602.27800789778
aF18817.473157452765
asS'L_x_EW6vvqq_Region_disttagMjj_DCRVjetTight_BMin0_T0_Y6051_incTag1_J2_L0_incJet1_overallSyst_x_HistSyst'
p83
(lp84
F515.4640106481922
aF38.30504782755886
asg5
(lp85
F178117.74201854598
aF18832.960356732343
asS'L_x_Z_Region_disttagMjj_DCRVjetTight_BMin0_T0_Y6051_incTag1_J2_L0_incJet1_overallSyst_x_StatUncert'
p86
(lp87
F80524.0706142926
aF8571.96442792151
asS'L_x_ttbar_Region_disttagMjj_DCRVjetTight_BMin0_T0_Y6051_incTag1_J2_L0_incJet1_overallSyst_x_StatUncert'
p88
(lp89
F21802.088626627337
aF6725.533109982032
asg8
(lp90
F515.4640106481922
aF38.30504782755886
asS'L_x_Diboson_Region_disttagMjj_DCRVjetTight_BMin0_T0_Y6051_incTag1_J2_L0_incJet1_overallSyst_x_StatUncert'
p91
(lp92
F4375.680785106262
aF1772.511127305381
asS'L_x_W_Region_disttagMjj_DCRVjetTight_BMin0_T0_Y6051_incTag1_J2_L0_incJet1_overallSyst_x_StatUncert'
p93
(lp94
F67436.4648241965
aF7029.009990173204
asg12
F1.221362996355974
sg17
F0.00290235021999701
sg20
(lp95
F515.4640106481922
aF38.30504782755886
asg7
F175982.0
sS'L_x_stop_Region_disttagMjj_DCRVjetTight_BMin0_T0_Y6051_incTag1_J2_L0_incJet1_overallSyst_x_StatUncert'
p96
(lp97
F3463.9731576750837
aF1066.3304797813012
ass.